; Function Attrs: mustprogress nofree norecurse nosync nounwind willreturn memory(argmem: write) uwtable
define dso_local void @_ZN3net18QuicFixedTagVectorC2EjNS_18QuicConfigPresenceE(ptr nocapture noundef nonnull writeonly align 8 dereferenceable(73) %this, i32 noundef %name, i32 noundef %presence) unnamed_addr #3 align 2 {
entry:
  %tag_.i = getelementptr inbounds i8, ptr %this, i64 8
  store i32 %name, ptr %tag_.i, align 8
  %presence_.i = getelementptr inbounds i8, ptr %this, i64 12
  store i32 %presence, ptr %presence_.i, align 4
  store ptr getelementptr inbounds ({ [6 x ptr] }, ptr @_ZTVN3net18QuicFixedTagVectorE, i64 0, i32 0, i64 2), ptr %this, align 8
  %send_values_ = getelementptr inbounds i8, ptr %this, i64 16
  %receive_values_ = getelementptr inbounds i8, ptr %this, i64 48
  tail call void @llvm.memset.p0.i64(ptr noundef nonnull align 8 dereferenceable(25) %send_values_, i8 0, i64 25, i1 false)
  tail call void @llvm.memset.p0.i64(ptr noundef nonnull align 8 dereferenceable(25) %receive_values_, i8 0, i64 25, i1 false)
  ret void
}